target datalayout = "e-m:e-p270:32:32-p271:32:32-p272:64:64-i64:64-i128:128-f80:128-n8:16:32:64-S128"
target triple = "x86_64-pc-linux-gnu"

; Function Attrs: nounwind uwtable
define internal i32 @zueci_utf32be_u(ptr noundef %0, i32 noundef %1, i32 noundef %2, ptr noundef %3) #0 {
  %5 = alloca i32, align 4
  %6 = alloca ptr, align 8
  %7 = alloca i32, align 4
  %8 = alloca i32, align 4
  %9 = alloca ptr, align 8
  %10 = alloca i32, align 4
  store ptr %0, ptr %6, align 8
  store i32 %1, ptr %7, align 4
  store i32 %2, ptr %8, align 4
  store ptr %3, ptr %9, align 8
  %11 = load i32, ptr %7, align 4
  %12 = icmp ult i32 %11, 4
  br i1 %12, label %13, label %14

13:                                               ; preds = %4
  store i32 0, ptr %5, align 4
  br label %49

14:                                               ; preds = %4
  %15 = load ptr, ptr %6, align 8
  %16 = getelementptr inbounds i8, ptr %15, i64 0
  %17 = load i8, ptr %16, align 1
  %18 = zext i8 %17 to i32
  %19 = shl i32 %18, 24
  %20 = load ptr, ptr %6, align 8
  %21 = getelementptr inbounds i8, ptr %20, i64 1
  %22 = load i8, ptr %21, align 1
  %23 = zext i8 %22 to i32
  %24 = shl i32 %23, 16
  %25 = or i32 %19, %24
  %26 = load ptr, ptr %6, align 8
  %27 = getelementptr inbounds i8, ptr %26, i64 2
  %28 = load i8, ptr %27, align 1
  %29 = zext i8 %28 to i32
  %30 = shl i32 %29, 8
  %31 = or i32 %25, %30
  %32 = load ptr, ptr %6, align 8
  %33 = getelementptr inbounds i8, ptr %32, i64 3
  %34 = load i8, ptr %33, align 1
  %35 = zext i8 %34 to i32
  %36 = or i32 %31, %35
  store i32 %36, ptr %10, align 4
  %37 = load i32, ptr %10, align 4
  %38 = icmp ult i32 %37, 55296
  br i1 %38, label %46, label %39

39:                                               ; preds = %14
  %40 = load i32, ptr %10, align 4
  %41 = icmp uge i32 %40, 57344
  br i1 %41, label %42, label %45

42:                                               ; preds = %39
  %43 = load i32, ptr %10, align 4
  %44 = icmp ule i32 %43, 1114111
  br i1 %44, label %46, label %45

45:                                               ; preds = %42, %39
  store i32 0, ptr %5, align 4
  br label %49

46:                                               ; preds = %42, %14
  %47 = load i32, ptr %10, align 4
  %48 = load ptr, ptr %9, align 8
  store i32 %47, ptr %48, align 4
  store i32 4, ptr %5, align 4
  br label %49

49:                                               ; preds = %46, %45, %13
  %50 = load i32, ptr %5, align 4
  ret i32 %50
}