; Function Attrs: mustprogress nofree norecurse nosync nounwind willreturn memory(argmem: readwrite) uwtable
define internal noundef i32 @zueci_utf32be_u(ptr nocapture noundef readonly %0, i32 noundef %1, i32 %2, ptr nocapture noundef writeonly %3) #6 {
  %5 = icmp ult i32 %1, 4
  br i1 %5, label %27, label %6

6:                                                ; preds = %4
  %7 = load i8, ptr %0, align 1
  %8 = zext i8 %7 to i32
  %9 = shl nuw i32 %8, 24
  %10 = getelementptr inbounds i8, ptr %0, i64 1
  %11 = load i8, ptr %10, align 1
  %12 = zext i8 %11 to i32
  %13 = shl nuw nsw i32 %12, 16
  %14 = or disjoint i32 %13, %9
  %15 = getelementptr inbounds i8, ptr %0, i64 2
  %16 = load i8, ptr %15, align 1
  %17 = zext i8 %16 to i32
  %18 = shl nuw nsw i32 %17, 8
  %19 = or disjoint i32 %14, %18
  %20 = getelementptr inbounds i8, ptr %0, i64 3
  %21 = load i8, ptr %20, align 1
  %22 = zext i8 %21 to i32
  %23 = or disjoint i32 %19, %22
  %24 = icmp ult i32 %23, 55296
  %25 = add i32 %19, -57344
  %or.cond = icmp ult i32 %25, 1056768
  %or.cond12 = or i1 %24, %or.cond
  br i1 %or.cond12, label %26, label %27

26:                                               ; preds = %6
  store i32 %23, ptr %3, align 4
  br label %27

27:                                               ; preds = %6, %4, %26
  %.0 = phi i32 [ 4, %26 ], [ 0, %4 ], [ 0, %6 ]
  ret i32 %.0
}